target datalayout = "e-m:e-p270:32:32-p271:32:32-p272:64:64-i64:64-i128:128-f80:128-n8:16:32:64-S128"
target triple = "x86_64-pc-linux-gnu"

%struct.prov_cipher_fake_ctx_st = type { [32 x i8], [16 x i8] }
%struct.ossl_param_st = type { ptr, i32, ptr, i64, i64 }

@.str.13 = private unnamed_addr constant [9 x i8] c"key_name\00", align 1
@.str.18 = private unnamed_addr constant [10 x i8] c"raw-bytes\00", align 1

; Function Attrs: nounwind uwtable
define internal i32 @fake_skeymgmt_export(ptr noundef %0, i32 noundef %1, ptr noundef %2, ptr noundef %3) #0 {
  %5 = alloca ptr, align 8
  %6 = alloca i32, align 4
  %7 = alloca ptr, align 8
  %8 = alloca ptr, align 8
  %9 = alloca [3 x %struct.ossl_param_st], align 16
  %10 = alloca ptr, align 8
  %11 = alloca ptr, align 8
  %12 = alloca %struct.ossl_param_st, align 8
  %13 = alloca %struct.ossl_param_st, align 8
  %14 = alloca %struct.ossl_param_st, align 8
  store ptr %0, ptr %5, align 8, !tbaa !17
  store i32 %1, ptr %6, align 4, !tbaa !18
  store ptr %2, ptr %7, align 8, !tbaa !17
  store ptr %3, ptr %8, align 8, !tbaa !17
  call void @llvm.lifetime.start.p0(i64 120, ptr %9) #6
  call void @llvm.lifetime.start.p0(i64 8, ptr %10) #6
  %15 = load ptr, ptr %5, align 8, !tbaa !17
  store ptr %15, ptr %10, align 8, !tbaa !28
  call void @llvm.lifetime.start.p0(i64 8, ptr %11) #6
  %16 = getelementptr inbounds [3 x %struct.ossl_param_st], ptr %9, i64 0, i64 0
  store ptr %16, ptr %11, align 8, !tbaa !33
  %17 = load i32, ptr %6, align 4, !tbaa !18
  %18 = and i32 %17, 1
  %19 = icmp ne i32 %18, 0
  br i1 %19, label %20, label %31

20:                                               ; preds = %4
  %21 = load ptr, ptr %11, align 8, !tbaa !33
  call void @llvm.lifetime.start.p0(i64 40, ptr %12) #6
  %22 = load ptr, ptr %10, align 8, !tbaa !28
  %23 = getelementptr inbounds nuw %struct.prov_cipher_fake_ctx_st, ptr %22, i32 0, i32 0
  %24 = getelementptr inbounds [32 x i8], ptr %23, i64 0, i64 0
  %25 = load ptr, ptr %10, align 8, !tbaa !28
  %26 = getelementptr inbounds nuw %struct.prov_cipher_fake_ctx_st, ptr %25, i32 0, i32 0
  %27 = getelementptr inbounds [32 x i8], ptr %26, i64 0, i64 0
  %28 = call i64 @strlen(ptr noundef %27) #7
  call void @OSSL_PARAM_construct_utf8_string(ptr dead_on_unwind writable sret(%struct.ossl_param_st) align 8 %12, ptr noundef @.str.13, ptr noundef %24, i64 noundef %28)
  call void @llvm.memcpy.p0.p0.i64(ptr align 8 %21, ptr align 8 %12, i64 40, i1 false), !tbaa.struct !35
  call void @llvm.lifetime.end.p0(i64 40, ptr %12) #6
  %29 = load ptr, ptr %11, align 8, !tbaa !33
  %30 = getelementptr inbounds nuw %struct.ossl_param_st, ptr %29, i32 1
  store ptr %30, ptr %11, align 8, !tbaa !33
  br label %31

31:                                               ; preds = %20, %4
  %32 = load i32, ptr %6, align 4, !tbaa !18
  %33 = and i32 %32, 2
  %34 = icmp ne i32 %33, 0
  br i1 %34, label %35, label %42

35:                                               ; preds = %31
  %36 = load ptr, ptr %11, align 8, !tbaa !33
  call void @llvm.lifetime.start.p0(i64 40, ptr %13) #6
  %37 = load ptr, ptr %10, align 8, !tbaa !28
  %38 = getelementptr inbounds nuw %struct.prov_cipher_fake_ctx_st, ptr %37, i32 0, i32 1
  %39 = getelementptr inbounds [16 x i8], ptr %38, i64 0, i64 0
  call void @OSSL_PARAM_construct_octet_string(ptr dead_on_unwind writable sret(%struct.ossl_param_st) align 8 %13, ptr noundef @.str.18, ptr noundef %39, i64 noundef 16)
  call void @llvm.memcpy.p0.p0.i64(ptr align 8 %36, ptr align 8 %13, i64 40, i1 false), !tbaa.struct !35
  call void @llvm.lifetime.end.p0(i64 40, ptr %13) #6
  %40 = load ptr, ptr %11, align 8, !tbaa !33
  %41 = getelementptr inbounds nuw %struct.ossl_param_st, ptr %40, i32 1
  store ptr %41, ptr %11, align 8, !tbaa !33
  br label %42

42:                                               ; preds = %35, %31
  %43 = load ptr, ptr %11, align 8, !tbaa !33
  call void @llvm.lifetime.start.p0(i64 40, ptr %14) #6
  call void @OSSL_PARAM_construct_end(ptr dead_on_unwind writable sret(%struct.ossl_param_st) align 8 %14)
  call void @llvm.memcpy.p0.p0.i64(ptr align 8 %43, ptr align 8 %14, i64 40, i1 false), !tbaa.struct !35
  call void @llvm.lifetime.end.p0(i64 40, ptr %14) #6
  %44 = load ptr, ptr %7, align 8, !tbaa !17
  %45 = getelementptr inbounds [3 x %struct.ossl_param_st], ptr %9, i64 0, i64 0
  %46 = load ptr, ptr %8, align 8, !tbaa !17
  %47 = call i32 %44(ptr noundef %45, ptr noundef %46)
  call void @llvm.lifetime.end.p0(i64 8, ptr %11) #6
  call void @llvm.lifetime.end.p0(i64 8, ptr %10) #6
  call void @llvm.lifetime.end.p0(i64 120, ptr %9) #6
  ret i32 %47
}