; Function Attrs: nounwind uwtable
define internal i32 @fake_skeymgmt_export(ptr noundef %0, i32 noundef %1, ptr noundef readonly captures(none) %2, ptr noundef %3) #0 {
  %5 = alloca [3 x %struct.ossl_param_st], align 16
  %6 = alloca %struct.ossl_param_st, align 8
  %7 = alloca %struct.ossl_param_st, align 8
  call void @llvm.lifetime.start.p0(i64 120, ptr nonnull %5) #11
  %8 = and i32 %1, 1
  %.not = icmp eq i32 %8, 0
  br i1 %.not, label %12, label %9

9:                                                ; preds = %4
  %10 = tail call i64 @strlen(ptr noundef nonnull dereferenceable(1) %0) #12
  call void @OSSL_PARAM_construct_utf8_string(ptr dead_on_unwind nonnull writable sret(%struct.ossl_param_st) align 8 %5, ptr noundef nonnull @.str.13, ptr noundef nonnull %0, i64 noundef %10) #11
  %11 = getelementptr inbounds nuw i8, ptr %5, i64 40
  br label %12

12:                                               ; preds = %9, %4
  %.0 = phi ptr [ %11, %9 ], [ %5, %4 ]
  %13 = and i32 %1, 2
  %.not12 = icmp eq i32 %13, 0
  br i1 %.not12, label %17, label %14

14:                                               ; preds = %12
  call void @llvm.lifetime.start.p0(i64 40, ptr nonnull %6) #11
  %15 = getelementptr inbounds nuw i8, ptr %0, i64 32
  call void @OSSL_PARAM_construct_octet_string(ptr dead_on_unwind nonnull writable sret(%struct.ossl_param_st) align 8 %6, ptr noundef nonnull @.str.18, ptr noundef nonnull %15, i64 noundef 16) #11
  call void @llvm.memcpy.p0.p0.i64(ptr noundef nonnull align 8 dereferenceable(40) %.0, ptr noundef nonnull align 8 dereferenceable(40) %6, i64 40, i1 false), !tbaa.struct !22
  call void @llvm.lifetime.end.p0(i64 40, ptr nonnull %6) #11
  %16 = getelementptr inbounds nuw i8, ptr %.0, i64 40
  br label %17

17:                                               ; preds = %14, %12
  %.1 = phi ptr [ %16, %14 ], [ %.0, %12 ]
  call void @llvm.lifetime.start.p0(i64 40, ptr nonnull %7) #11
  call void @OSSL_PARAM_construct_end(ptr dead_on_unwind nonnull writable sret(%struct.ossl_param_st) align 8 %7) #11
  call void @llvm.memcpy.p0.p0.i64(ptr noundef nonnull align 8 dereferenceable(40) %.1, ptr noundef nonnull align 8 dereferenceable(40) %7, i64 40, i1 false), !tbaa.struct !22
  call void @llvm.lifetime.end.p0(i64 40, ptr nonnull %7) #11
  %18 = call i32 %2(ptr noundef nonnull %5, ptr noundef %3) #11
  call void @llvm.lifetime.end.p0(i64 120, ptr nonnull %5) #11
  ret i32 %18
}